(dp0
S'set05_V000_I00605'
p1
(lp2
(dp3
S'difficult'
p4
S'0'
p5
sS'name'
p6
S'person'
p7
sS'bbox'
p8
(lp9
S'139'
p10
aS'215'
p11
aS'77139'
p12
aS'188215'
p13
asa(dp14
g4
g5
sg6
S'person'
p15
sg8
(lp16
S'204'
p17
aS'221'
p18
aS'73204'
p19
aS'186221'
p20
asasS'set05_V000_I00604'
p21
(lp22
(dp23
g4
g5
sg6
S'person'
p24
sg8
(lp25
S'141'
p26
aS'215'
p27
aS'77141'
p28
aS'188215'
p29
asa(dp30
g4
g5
sg6
S'person'
p31
sg8
(lp32
S'205'
p33
aS'221'
p34
aS'72205'
p35
aS'185221'
p36
asasS'set05_V000_I00607'
p37
(lp38
(dp39
g4
g5
sg6
S'person'
p40
sg8
(lp41
S'135'
p42
aS'215'
p43
aS'77135'
p44
aS'188215'
p45
asa(dp46
g4
g5
sg6
S'person'
p47
sg8
(lp48
S'201'
p49
aS'221'
p50
aS'74201'
p51
aS'188221'
p52
asasS'set05_V000_I00606'
p53
(lp54
(dp55
g4
g5
sg6
S'person'
p56
sg8
(lp57
S'137'
p58
aS'215'
p59
aS'77137'
p60
aS'188215'
p61
asa(dp62
g4
g5
sg6
S'person'
p63
sg8
(lp64
S'203'
p65
aS'221'
p66
aS'73203'
p67
aS'187221'
p68
asasS'set05_V000_I00609'
p69
(lp70
(dp71
g4
g5
sg6
S'person'
p72
sg8
(lp73
S'130'
p74
aS'215'
p75
aS'78130'
p76
aS'188215'
p77
asa(dp78
g4
g5
sg6
S'person'
p79
sg8
(lp80
S'199'
p81
aS'220'
p82
aS'75199'
p83
aS'190220'
p84
asasS'set05_V000_I00608'
p85
(lp86
(dp87
g4
g5
sg6
S'person'
p88
sg8
(lp89
S'133'
p90
aS'215'
p91
aS'78133'
p92
aS'188215'
p93
asa(dp94
g4
g5
sg6
S'person'
p95
sg8
(lp96
S'200'
p97
aS'220'
p98
aS'75200'
p99
aS'189220'
p100
asas.